target datalayout = "e-m:e-p270:32:32-p271:32:32-p272:64:64-i64:64-i128:128-f80:128-n8:16:32:64-S128"
target triple = "x86_64-pc-linux-gnu"

%struct.asn1_type_st = type { i32, %union.anon }
%union.anon = type { ptr }
%struct.X509_algor_st = type { ptr, ptr }

@.str = private unnamed_addr constant [35 x i8] c"../openssl/crypto/pkcs7/pk7_attr.c\00", align 1
@__func__.PKCS7_simple_smimecap = private unnamed_addr constant [22 x i8] c"PKCS7_simple_smimecap\00", align 1

; Function Attrs: inlinehint nounwind uwtable
define internal ptr @ossl_check_X509_ALGOR_type(ptr noundef %0) #3 {
  %2 = alloca ptr, align 8
  store ptr %0, ptr %2, align 8, !tbaa !25
  %3 = load ptr, ptr %2, align 8, !tbaa !25
  ret ptr %3
}

; Function Attrs: inlinehint nounwind uwtable
define internal ptr @ossl_check_X509_ALGOR_sk_type(ptr noundef %0) #3 {
  %2 = alloca ptr, align 8
  store ptr %0, ptr %2, align 8, !tbaa !8
  %3 = load ptr, ptr %2, align 8, !tbaa !8
  ret ptr %3
}

; Function Attrs: nounwind uwtable
define i32 @PKCS7_simple_smimecap(ptr noundef %0, i32 noundef %1, i32 noundef %2) #0 {
  %4 = alloca i32, align 4
  %5 = alloca ptr, align 8
  %6 = alloca i32, align 4
  %7 = alloca i32, align 4
  %8 = alloca ptr, align 8
  %9 = alloca ptr, align 8
  %10 = alloca i32, align 4
  store ptr %0, ptr %5, align 8, !tbaa !8
  store i32 %1, ptr %6, align 4, !tbaa !24
  store i32 %2, ptr %7, align 4, !tbaa !24
  call void @llvm.lifetime.start.p0(i64 8, ptr %8) #4
  store ptr null, ptr %8, align 8, !tbaa !10
  call void @llvm.lifetime.start.p0(i64 8, ptr %9) #4
  %11 = call ptr @X509_ALGOR_new()
  store ptr %11, ptr %9, align 8, !tbaa !25
  %12 = icmp eq ptr %11, null
  br i1 %12, label %13, label %14

13:                                               ; preds = %3
  call void @ERR_new()
  call void @ERR_set_debug(ptr noundef @.str, i32 noundef 64, ptr noundef @__func__.PKCS7_simple_smimecap)
  call void (i32, i32, ptr, ...) @ERR_set_error(i32 noundef 33, i32 noundef 524301, ptr noundef null)
  store i32 0, ptr %4, align 4
  store i32 1, ptr %10, align 4
  br label %63

14:                                               ; preds = %3
  %15 = load ptr, ptr %9, align 8, !tbaa !25
  %16 = getelementptr inbounds nuw %struct.X509_algor_st, ptr %15, i32 0, i32 0
  %17 = load ptr, ptr %16, align 8, !tbaa !27
  call void @ASN1_OBJECT_free(ptr noundef %17)
  %18 = load i32, ptr %6, align 4, !tbaa !24
  %19 = call ptr @OBJ_nid2obj(i32 noundef %18)
  %20 = load ptr, ptr %9, align 8, !tbaa !25
  %21 = getelementptr inbounds nuw %struct.X509_algor_st, ptr %20, i32 0, i32 0
  store ptr %19, ptr %21, align 8, !tbaa !27
  %22 = load i32, ptr %7, align 4, !tbaa !24
  %23 = icmp sgt i32 %22, 0
  br i1 %23, label %24, label %51

24:                                               ; preds = %14
  %25 = call ptr @ASN1_TYPE_new()
  %26 = load ptr, ptr %9, align 8, !tbaa !25
  %27 = getelementptr inbounds nuw %struct.X509_algor_st, ptr %26, i32 0, i32 1
  store ptr %25, ptr %27, align 8, !tbaa !30
  %28 = icmp eq ptr %25, null
  br i1 %28, label %29, label %30

29:                                               ; preds = %24
  call void @ERR_new()
  call void @ERR_set_debug(ptr noundef @.str, i32 noundef 71, ptr noundef @__func__.PKCS7_simple_smimecap)
  call void (i32, i32, ptr, ...) @ERR_set_error(i32 noundef 33, i32 noundef 524301, ptr noundef null)
  br label %60

30:                                               ; preds = %24
  %31 = call ptr @ASN1_INTEGER_new()
  store ptr %31, ptr %8, align 8, !tbaa !10
  %32 = icmp eq ptr %31, null
  br i1 %32, label %33, label %34

33:                                               ; preds = %30
  call void @ERR_new()
  call void @ERR_set_debug(ptr noundef @.str, i32 noundef 75, ptr noundef @__func__.PKCS7_simple_smimecap)
  call void (i32, i32, ptr, ...) @ERR_set_error(i32 noundef 33, i32 noundef 524301, ptr noundef null)
  br label %60

34:                                               ; preds = %30
  %35 = load ptr, ptr %8, align 8, !tbaa !10
  %36 = load i32, ptr %7, align 4, !tbaa !24
  %37 = sext i32 %36 to i64
  %38 = call i32 @ASN1_INTEGER_set(ptr noundef %35, i64 noundef %37)
  %39 = icmp ne i32 %38, 0
  br i1 %39, label %41, label %40

40:                                               ; preds = %34
  call void @ERR_new()
  call void @ERR_set_debug(ptr noundef @.str, i32 noundef 79, ptr noundef @__func__.PKCS7_simple_smimecap)
  call void (i32, i32, ptr, ...) @ERR_set_error(i32 noundef 33, i32 noundef 524301, ptr noundef null)
  br label %60

41:                                               ; preds = %34
  %42 = load ptr, ptr %8, align 8, !tbaa !10
  %43 = load ptr, ptr %9, align 8, !tbaa !25
  %44 = getelementptr inbounds nuw %struct.X509_algor_st, ptr %43, i32 0, i32 1
  %45 = load ptr, ptr %44, align 8, !tbaa !30
  %46 = getelementptr inbounds nuw %struct.asn1_type_st, ptr %45, i32 0, i32 1
  store ptr %42, ptr %46, align 8, !tbaa !22
  %47 = load ptr, ptr %9, align 8, !tbaa !25
  %48 = getelementptr inbounds nuw %struct.X509_algor_st, ptr %47, i32 0, i32 1
  %49 = load ptr, ptr %48, align 8, !tbaa !30
  %50 = getelementptr inbounds nuw %struct.asn1_type_st, ptr %49, i32 0, i32 0
  store i32 2, ptr %50, align 8, !tbaa !20
  store ptr null, ptr %8, align 8, !tbaa !10
  br label %51

51:                                               ; preds = %41, %14
  %52 = load ptr, ptr %5, align 8, !tbaa !8
  %53 = call ptr @ossl_check_X509_ALGOR_sk_type(ptr noundef %52)
  %54 = load ptr, ptr %9, align 8, !tbaa !25
  %55 = call ptr @ossl_check_X509_ALGOR_type(ptr noundef %54)
  %56 = call i32 @OPENSSL_sk_push(ptr noundef %53, ptr noundef %55)
  %57 = icmp ne i32 %56, 0
  br i1 %57, label %59, label %58

58:                                               ; preds = %51
  call void @ERR_new()
  call void @ERR_set_debug(ptr noundef @.str, i32 noundef 87, ptr noundef @__func__.PKCS7_simple_smimecap)
  call void (i32, i32, ptr, ...) @ERR_set_error(i32 noundef 33, i32 noundef 524303, ptr noundef null)
  br label %60

59:                                               ; preds = %51
  store i32 1, ptr %4, align 4
  store i32 1, ptr %10, align 4
  br label %63

60:                                               ; preds = %58, %40, %33, %29
  %61 = load ptr, ptr %8, align 8, !tbaa !10
  call void @ASN1_INTEGER_free(ptr noundef %61)
  %62 = load ptr, ptr %9, align 8, !tbaa !25
  call void @X509_ALGOR_free(ptr noundef %62)
  store i32 0, ptr %4, align 4
  store i32 1, ptr %10, align 4
  br label %63

63:                                               ; preds = %60, %59, %13
  call void @llvm.lifetime.end.p0(i64 8, ptr %9) #4
  call void @llvm.lifetime.end.p0(i64 8, ptr %8) #4
  %64 = load i32, ptr %4, align 4
  ret i32 %64
}