; Function Attrs: nounwind uwtable
define range(i32 0, 2) i32 @PKCS7_simple_smimecap(ptr noundef %0, i32 noundef %1, i32 noundef %2) local_unnamed_addr #0 {
  %4 = tail call ptr @X509_ALGOR_new() #3
  %5 = icmp eq ptr %4, null
  br i1 %5, label %6, label %7

6:                                                ; preds = %3
  tail call void @ERR_new() #3
  tail call void @ERR_set_debug(ptr noundef nonnull @.str, i32 noundef 64, ptr noundef nonnull @__func__.PKCS7_simple_smimecap) #3
  tail call void (i32, i32, ptr, ...) @ERR_set_error(i32 noundef 33, i32 noundef 524301, ptr noundef null) #3
  br label %28

7:                                                ; preds = %3
  %8 = load ptr, ptr %4, align 8, !tbaa !16
  tail call void @ASN1_OBJECT_free(ptr noundef %8) #3
  %9 = tail call ptr @OBJ_nid2obj(i32 noundef %1) #3
  store ptr %9, ptr %4, align 8, !tbaa !16
  %10 = icmp sgt i32 %2, 0
  br i1 %10, label %11, label %25

11:                                               ; preds = %7
  %12 = tail call ptr @ASN1_TYPE_new() #3
  %13 = getelementptr inbounds nuw i8, ptr %4, i64 8
  store ptr %12, ptr %13, align 8, !tbaa !20
  %14 = icmp eq ptr %12, null
  br i1 %14, label %27, label %15

15:                                               ; preds = %11
  %16 = tail call ptr @ASN1_INTEGER_new() #3
  %17 = icmp eq ptr %16, null
  br i1 %17, label %27, label %18

18:                                               ; preds = %15
  %19 = zext nneg i32 %2 to i64
  %20 = tail call i32 @ASN1_INTEGER_set(ptr noundef nonnull %16, i64 noundef %19) #3
  %.not = icmp eq i32 %20, 0
  br i1 %.not, label %27, label %21

21:                                               ; preds = %18
  %22 = load ptr, ptr %13, align 8, !tbaa !20
  %23 = getelementptr inbounds nuw i8, ptr %22, i64 8
  store ptr %16, ptr %23, align 8, !tbaa !14
  %24 = load ptr, ptr %13, align 8, !tbaa !20
  store i32 2, ptr %24, align 8, !tbaa !12
  br label %25

25:                                               ; preds = %21, %7
  %26 = tail call i32 @OPENSSL_sk_push(ptr noundef %0, ptr noundef nonnull %4) #3
  %.not19 = icmp eq i32 %26, 0
  br i1 %.not19, label %27, label %28

27:                                               ; preds = %25, %18, %15, %11
  %.sink20 = phi i32 [ 71, %11 ], [ 75, %15 ], [ 79, %18 ], [ 87, %25 ]
  %.sink = phi i32 [ 524301, %11 ], [ 524301, %15 ], [ 524301, %18 ], [ 524303, %25 ]
  %.1 = phi ptr [ null, %11 ], [ null, %15 ], [ %16, %18 ], [ null, %25 ]
  tail call void @ERR_new() #3
  tail call void @ERR_set_debug(ptr noundef nonnull @.str, i32 noundef %.sink20, ptr noundef nonnull @__func__.PKCS7_simple_smimecap) #3
  tail call void (i32, i32, ptr, ...) @ERR_set_error(i32 noundef 33, i32 noundef %.sink, ptr noundef null) #3
  tail call void @ASN1_INTEGER_free(ptr noundef %.1) #3
  tail call void @X509_ALGOR_free(ptr noundef nonnull %4) #3
  br label %28

28:                                               ; preds = %25, %27, %6
  %.0 = phi i32 [ 0, %6 ], [ 0, %27 ], [ 1, %25 ]
  ret i32 %.0
}